; Function Attrs: mustprogress nofree norecurse nosync nounwind willreturn memory(argmem: readwrite) uwtable
define noundef nonnull align 8 dereferenceable(32) ptr @_ZN32pxrInternal_v0_24__pxrReserved__10GfMatrix2dmLERKS0_(ptr noundef nonnull returned align 8 dereferenceable(32) %0, ptr noundef nonnull readonly align 8 captures(none) dereferenceable(32) %1) local_unnamed_addr #2 align 2 {
  %.sroa.0.0.copyload = load double, ptr %0, align 8
  %.sroa.3.0..sroa_idx = getelementptr inbounds nuw i8, ptr %0, i64 8
  %.sroa.3.0.copyload = load double, ptr %.sroa.3.0..sroa_idx, align 8
  %.sroa.5.0..sroa_idx = getelementptr inbounds nuw i8, ptr %0, i64 16
  %.sroa.5.0.copyload = load double, ptr %.sroa.5.0..sroa_idx, align 8
  %.sroa.7.0..sroa_idx = getelementptr inbounds nuw i8, ptr %0, i64 24
  %.sroa.7.0.copyload = load double, ptr %.sroa.7.0..sroa_idx, align 8
  %3 = load double, ptr %1, align 8
  %4 = getelementptr inbounds nuw i8, ptr %1, i64 16
  %5 = load double, ptr %4, align 8
  %6 = fmul double %.sroa.3.0.copyload, %5
  %7 = tail call double @llvm.fmuladd.f64(double %.sroa.0.0.copyload, double %3, double %6)
  store double %7, ptr %0, align 8
  %8 = getelementptr inbounds nuw i8, ptr %1, i64 8
  %9 = load double, ptr %8, align 8
  %10 = getelementptr inbounds nuw i8, ptr %1, i64 24
  %11 = load double, ptr %10, align 8
  %12 = fmul double %.sroa.3.0.copyload, %11
  %13 = tail call double @llvm.fmuladd.f64(double %.sroa.0.0.copyload, double %9, double %12)
  store double %13, ptr %.sroa.3.0..sroa_idx, align 8
  %14 = load double, ptr %1, align 8
  %15 = load double, ptr %4, align 8
  %16 = fmul double %.sroa.7.0.copyload, %15
  %17 = tail call double @llvm.fmuladd.f64(double %.sroa.5.0.copyload, double %14, double %16)
  store double %17, ptr %.sroa.5.0..sroa_idx, align 8
  %18 = load double, ptr %8, align 8
  %19 = load double, ptr %10, align 8
  %20 = fmul double %.sroa.7.0.copyload, %19
  %21 = tail call double @llvm.fmuladd.f64(double %.sroa.5.0.copyload, double %18, double %20)
  store double %21, ptr %.sroa.7.0..sroa_idx, align 8
  ret ptr %0
}